target datalayout = "e-m:e-p270:32:32-p271:32:32-p272:64:64-i64:64-i128:128-f80:128-n8:16:32:64-S128"
target triple = "x86_64-pc-linux-gnu"

%"class.open3d::core::Dtype" = type { i32, i64, [16 x i8] }
%"class.open3d::core::HashMap" = type { %"class.open3d::core::IsDevice", %"class.std::shared_ptr", %"class.open3d::core::Dtype", %"class.open3d::core::SizeVector", %"class.std::vector", %"class.std::vector.0" }
%"class.open3d::core::IsDevice" = type { ptr }
%"class.std::shared_ptr" = type { %"class.std::__shared_ptr" }
%"class.std::__shared_ptr" = type { ptr, %"class.std::__shared_count" }
%"class.std::__shared_count" = type { ptr }
%"class.open3d::core::SizeVector" = type { %"class.open3d::core::SmallVector" }
%"class.open3d::core::SmallVector" = type { %"class.open3d::core::SmallVectorImpl", %"struct.open3d::core::SmallVectorStorage" }
%"class.open3d::core::SmallVectorImpl" = type { %"class.open3d::core::SmallVectorTemplateBase" }
%"class.open3d::core::SmallVectorTemplateBase" = type { %"class.open3d::core::SmallVectorTemplateCommon" }
%"class.open3d::core::SmallVectorTemplateCommon" = type { %"class.open3d::core::SmallVectorBase" }
%"class.open3d::core::SmallVectorBase" = type { ptr, i32, i32 }
%"struct.open3d::core::SmallVectorStorage" = type { [32 x i8] }
%"class.std::vector" = type { %"struct.std::_Vector_base" }
%"struct.std::_Vector_base" = type { %"struct.std::_Vector_base<open3d::core::Dtype, std::allocator<open3d::core::Dtype>>::_Vector_impl" }
%"struct.std::_Vector_base<open3d::core::Dtype, std::allocator<open3d::core::Dtype>>::_Vector_impl" = type { %"struct.std::_Vector_base<open3d::core::Dtype, std::allocator<open3d::core::Dtype>>::_Vector_impl_data" }
%"struct.std::_Vector_base<open3d::core::Dtype, std::allocator<open3d::core::Dtype>>::_Vector_impl_data" = type { ptr, ptr, ptr }
%"class.std::vector.0" = type { %"struct.std::_Vector_base.1" }
%"struct.std::_Vector_base.1" = type { %"struct.std::_Vector_base<open3d::core::SizeVector, std::allocator<open3d::core::SizeVector>>::_Vector_impl" }
%"struct.std::_Vector_base<open3d::core::SizeVector, std::allocator<open3d::core::SizeVector>>::_Vector_impl" = type { %"struct.std::_Vector_base<open3d::core::SizeVector, std::allocator<open3d::core::SizeVector>>::_Vector_impl_data" }
%"struct.std::_Vector_base<open3d::core::SizeVector, std::allocator<open3d::core::SizeVector>>::_Vector_impl_data" = type { ptr, ptr, ptr }
%"class.open3d::core::Tensor" = type { %"class.open3d::core::IsDevice", %"class.open3d::core::SizeVector", %"class.open3d::core::SizeVector", ptr, %"class.open3d::core::Dtype", %"class.std::shared_ptr.7" }
%"class.std::shared_ptr.7" = type { %"class.std::__shared_ptr.8" }
%"class.std::__shared_ptr.8" = type { ptr, %"class.std::__shared_count" }

@.str.1 = private unnamed_addr constant [127 x i8] c"generated/home/dtcxzyw/WorkSpace/Projects/compilers/llvm-opt-benchmark/bench/open3d/Open3D/cpp/open3d/core/hashmap/HashMap.cpp\00", align 1
@__PRETTY_FUNCTION__._ZNK6open3d4core7HashMap14CheckKeyLengthERKNS0_6TensorE = private unnamed_addr constant [65 x i8] c"void open3d::core::HashMap::CheckKeyLength(const Tensor &) const\00", align 1
@.str.58 = private unnamed_addr constant [44 x i8] c"Input number of keys should > 0, but got 0.\00", align 1

; Function Attrs: mustprogress nounwind ssp uwtable
define linkonce_odr noundef ptr @_ZNK6open3d4core25SmallVectorTemplateCommonIlvE10getFirstElEv(ptr noundef nonnull align 8 dereferenceable(16) %0) #0 comdat align 2 {
  %2 = alloca ptr, align 8
  store ptr %0, ptr %2, align 8, !tbaa !82
  %3 = load ptr, ptr %2, align 8
  %4 = getelementptr inbounds nuw i8, ptr %3, i64 16
  ret ptr %4
}

; Function Attrs: mustprogress ssp uwtable
define linkonce_odr noundef zeroext i1 @_ZNK6open3d4core25SmallVectorTemplateCommonIlvE7isSmallEv(ptr noundef nonnull align 8 dereferenceable(16) %0) #1 comdat align 2 {
  %2 = alloca ptr, align 8
  store ptr %0, ptr %2, align 8, !tbaa !82
  %3 = load ptr, ptr %2, align 8
  %4 = getelementptr inbounds nuw %"class.open3d::core::SmallVectorBase", ptr %3, i32 0, i32 0
  %5 = load ptr, ptr %4, align 8, !tbaa !84
  %6 = call noundef ptr @_ZNK6open3d4core25SmallVectorTemplateCommonIlvE10getFirstElEv(ptr noundef nonnull align 8 dereferenceable(16) %3)
  %7 = icmp eq ptr %5, %6
  ret i1 %7
}

; Function Attrs: mustprogress nounwind ssp uwtable
define linkonce_odr noundef i64 @_ZNK6open3d4core15SmallVectorBaseIjE4sizeEv(ptr noundef nonnull align 8 dereferenceable(16) %0) #0 comdat align 2 {
  %2 = alloca ptr, align 8
  store ptr %0, ptr %2, align 8, !tbaa !89
  %3 = load ptr, ptr %2, align 8
  %4 = getelementptr inbounds nuw %"class.open3d::core::SmallVectorBase", ptr %3, i32 0, i32 1
  %5 = load i32, ptr %4, align 8, !tbaa !91
  %6 = zext i32 %5 to i64
  ret i64 %6
}

; Function Attrs: mustprogress nounwind ssp uwtable
define linkonce_odr noundef ptr @_ZNKSt12__shared_ptrIN6open3d4core17DeviceHashBackendELN9__gnu_cxx12_Lock_policyE2EE3getEv(ptr noundef nonnull align 8 dereferenceable(16) %0) #0 comdat align 2 {
  %2 = alloca ptr, align 8
  store ptr %0, ptr %2, align 8, !tbaa !54
  %3 = load ptr, ptr %2, align 8
  %4 = getelementptr inbounds nuw %"class.std::__shared_ptr", ptr %3, i32 0, i32 0
  %5 = load ptr, ptr %4, align 8, !tbaa !56
  ret ptr %5
}

; Function Attrs: noinline noreturn nounwind ssp uwtable
define linkonce_odr hidden void @__clang_call_terminate(ptr noundef %0) #13 comdat {
  %2 = call ptr @__cxa_begin_catch(ptr %0) #27
  call void @_ZSt9terminatev() #29
  unreachable
}

; Function Attrs: mustprogress nounwind ssp uwtable
define linkonce_odr void @_ZN6open3d4core15SmallVectorImplIlED2Ev(ptr noundef nonnull align 8 dereferenceable(16) %0) unnamed_addr #0 comdat align 2 personality ptr @__gxx_personality_v0 {
  %2 = alloca ptr, align 8
  store ptr %0, ptr %2, align 8, !tbaa !87
  %3 = load ptr, ptr %2, align 8
  %4 = invoke noundef zeroext i1 @_ZNK6open3d4core25SmallVectorTemplateCommonIlvE7isSmallEv(ptr noundef nonnull align 8 dereferenceable(16) %3)
          to label %5 unwind label %9

5:                                                ; preds = %1
  br i1 %4, label %8, label %6

6:                                                ; preds = %5
  %7 = call noundef ptr @_ZN6open3d4core25SmallVectorTemplateCommonIlvE5beginEv(ptr noundef nonnull align 8 dereferenceable(16) %3)
  call void @free(ptr noundef %7) #27
  br label %8

8:                                                ; preds = %6, %5
  ret void

9:                                                ; preds = %1
  %10 = landingpad { ptr, i32 }
          catch ptr null
  %11 = extractvalue { ptr, i32 } %10, 0
  call void @__clang_call_terminate(ptr %11) #29
  unreachable
}

; Function Attrs: mustprogress nounwind ssp uwtable
define linkonce_odr void @_ZN6open3d4core23SmallVectorTemplateBaseIlLb1EE13destroy_rangeEPlS3_(ptr noundef %0, ptr noundef %1) #0 comdat align 2 {
  %3 = alloca ptr, align 8
  %4 = alloca ptr, align 8
  store ptr %0, ptr %3, align 8, !tbaa !76
  store ptr %1, ptr %4, align 8, !tbaa !76
  ret void
}

; Function Attrs: mustprogress ssp uwtable
define linkonce_odr noundef ptr @_ZN6open3d4core25SmallVectorTemplateCommonIlvE3endEv(ptr noundef nonnull align 8 dereferenceable(16) %0) #1 comdat align 2 {
  %2 = alloca ptr, align 8
  store ptr %0, ptr %2, align 8, !tbaa !82
  %3 = load ptr, ptr %2, align 8
  %4 = call noundef ptr @_ZN6open3d4core25SmallVectorTemplateCommonIlvE5beginEv(ptr noundef nonnull align 8 dereferenceable(16) %3)
  %5 = call noundef i64 @_ZNK6open3d4core15SmallVectorBaseIjE4sizeEv(ptr noundef nonnull align 8 dereferenceable(16) %3)
  %6 = getelementptr inbounds nuw i64, ptr %4, i64 %5
  ret ptr %6
}

; Function Attrs: mustprogress nounwind ssp uwtable
define linkonce_odr noundef ptr @_ZN6open3d4core25SmallVectorTemplateCommonIlvE5beginEv(ptr noundef nonnull align 8 dereferenceable(16) %0) #0 comdat align 2 {
  %2 = alloca ptr, align 8
  store ptr %0, ptr %2, align 8, !tbaa !82
  %3 = load ptr, ptr %2, align 8
  %4 = getelementptr inbounds nuw %"class.open3d::core::SmallVectorBase", ptr %3, i32 0, i32 0
  %5 = load ptr, ptr %4, align 8, !tbaa !84
  ret ptr %5
}

; Function Attrs: mustprogress nounwind ssp uwtable
define linkonce_odr noundef ptr @_ZNKSt19__shared_ptr_accessIN6open3d4core17DeviceHashBackendELN9__gnu_cxx12_Lock_policyE2ELb0ELb0EE6_M_getEv(ptr noundef nonnull align 1 dereferenceable(1) %0) #0 comdat align 2 {
  %2 = alloca ptr, align 8
  store ptr %0, ptr %2, align 8, !tbaa !166
  %3 = load ptr, ptr %2, align 8
  %4 = call noundef ptr @_ZNKSt12__shared_ptrIN6open3d4core17DeviceHashBackendELN9__gnu_cxx12_Lock_policyE2EE3getEv(ptr noundef nonnull align 8 dereferenceable(16) %3) #27
  ret ptr %4
}

; Function Attrs: mustprogress nounwind ssp uwtable
define linkonce_odr void @_ZN6open3d4core11SmallVectorIlLj4EED2Ev(ptr noundef nonnull align 8 dereferenceable(48) %0) unnamed_addr #0 comdat align 2 personality ptr @__gxx_personality_v0 {
  %2 = alloca ptr, align 8
  store ptr %0, ptr %2, align 8, !tbaa !40
  %3 = load ptr, ptr %2, align 8
  %4 = invoke noundef ptr @_ZN6open3d4core25SmallVectorTemplateCommonIlvE5beginEv(ptr noundef nonnull align 8 dereferenceable(16) %3)
          to label %5 unwind label %9

5:                                                ; preds = %1
  %6 = invoke noundef ptr @_ZN6open3d4core25SmallVectorTemplateCommonIlvE3endEv(ptr noundef nonnull align 8 dereferenceable(16) %3)
          to label %7 unwind label %9

7:                                                ; preds = %5
  invoke void @_ZN6open3d4core23SmallVectorTemplateBaseIlLb1EE13destroy_rangeEPlS3_(ptr noundef %4, ptr noundef %6)
          to label %8 unwind label %9

8:                                                ; preds = %7
  call void @_ZN6open3d4core15SmallVectorImplIlED2Ev(ptr noundef nonnull align 8 dereferenceable(16) %3) #27
  ret void

9:                                                ; preds = %7, %5, %1
  %10 = landingpad { ptr, i32 }
          catch ptr null
  %11 = extractvalue { ptr, i32 } %10, 0
  call void @__clang_call_terminate(ptr %11) #29
  unreachable
}

; Function Attrs: inlinehint mustprogress ssp uwtable
define linkonce_odr void @_ZNK6open3d4core6Tensor8GetShapeEv(ptr dead_on_unwind noalias writable sret(%"class.open3d::core::SizeVector") align 8 %0, ptr noundef nonnull align 8 dereferenceable(160) %1) #8 comdat align 2 {
  %3 = alloca ptr, align 8
  %4 = alloca ptr, align 8
  store ptr %0, ptr %3, align 8
  store ptr %1, ptr %4, align 8, !tbaa !134
  %5 = load ptr, ptr %4, align 8
  %6 = getelementptr inbounds nuw %"class.open3d::core::Tensor", ptr %5, i32 0, i32 1
  call void @_ZN6open3d4core10SizeVectorC1ERKS1_(ptr noundef nonnull align 8 dereferenceable(48) %0, ptr noundef nonnull align 8 dereferenceable(48) %6)
  ret void
}

; Function Attrs: inlinehint mustprogress ssp uwtable
define linkonce_odr noundef ptr @_ZN6open3d4core6Tensor10GetDataPtrIbEEPT_v(ptr noundef nonnull align 8 dereferenceable(160) %0) #8 comdat align 2 {
  %2 = alloca ptr, align 8
  store ptr %0, ptr %2, align 8, !tbaa !134
  %3 = load ptr, ptr %2, align 8
  %4 = call noundef ptr @_ZNK6open3d4core6Tensor10GetDataPtrIbEEPKT_v(ptr noundef nonnull align 8 dereferenceable(160) %3)
  ret ptr %4
}

; Function Attrs: inlinehint mustprogress nounwind ssp uwtable
define linkonce_odr noundef ptr @_ZNK6open3d4core6Tensor10GetDataPtrEv(ptr noundef nonnull align 8 dereferenceable(160) %0) #12 comdat align 2 {
  %2 = alloca ptr, align 8
  store ptr %0, ptr %2, align 8, !tbaa !134
  %3 = load ptr, ptr %2, align 8
  %4 = getelementptr inbounds nuw %"class.open3d::core::Tensor", ptr %3, i32 0, i32 3
  %5 = load ptr, ptr %4, align 8, !tbaa !140
  ret ptr %5
}

; Function Attrs: mustprogress nounwind ssp uwtable
define linkonce_odr noundef ptr @_ZNKSt19__shared_ptr_accessIN6open3d4core17DeviceHashBackendELN9__gnu_cxx12_Lock_policyE2ELb0ELb0EEptEv(ptr noundef nonnull align 1 dereferenceable(1) %0) #0 comdat align 2 {
  %2 = alloca ptr, align 8
  store ptr %0, ptr %2, align 8, !tbaa !166
  %3 = load ptr, ptr %2, align 8
  %4 = call noundef ptr @_ZNKSt19__shared_ptr_accessIN6open3d4core17DeviceHashBackendELN9__gnu_cxx12_Lock_policyE2ELb0ELb0EE6_M_getEv(ptr noundef nonnull align 1 dereferenceable(1) %3) #27
  ret ptr %4
}

; Function Attrs: inlinehint mustprogress ssp uwtable
define linkonce_odr noundef i64 @_ZNK6open3d4core6Tensor9GetLengthEv(ptr noundef nonnull align 8 dereferenceable(160) %0) #8 comdat align 2 personality ptr @__gxx_personality_v0 {
  %2 = alloca ptr, align 8
  %3 = alloca %"class.open3d::core::SizeVector", align 8
  %4 = alloca ptr, align 8
  %5 = alloca i32, align 4
  store ptr %0, ptr %2, align 8, !tbaa !134
  %6 = load ptr, ptr %2, align 8
  call void @llvm.lifetime.start.p0(i64 48, ptr %3) #27
  call void @_ZNK6open3d4core6Tensor8GetShapeEv(ptr dead_on_unwind writable sret(%"class.open3d::core::SizeVector") align 8 %3, ptr noundef nonnull align 8 dereferenceable(160) %6)
  %7 = invoke noundef i64 @_ZNK6open3d4core10SizeVector9GetLengthEv(ptr noundef nonnull align 8 dereferenceable(48) %3)
          to label %8 unwind label %9

8:                                                ; preds = %1
  call void @_ZN6open3d4core11SmallVectorIlLj4EED2Ev(ptr noundef nonnull align 8 dereferenceable(48) %3) #27
  call void @llvm.lifetime.end.p0(i64 48, ptr %3) #27
  ret i64 %7

9:                                                ; preds = %1
  %10 = landingpad { ptr, i32 }
          cleanup
  %11 = extractvalue { ptr, i32 } %10, 0
  store ptr %11, ptr %4, align 8
  %12 = extractvalue { ptr, i32 } %10, 1
  store i32 %12, ptr %5, align 4
  call void @_ZN6open3d4core11SmallVectorIlLj4EED2Ev(ptr noundef nonnull align 8 dereferenceable(48) %3) #27
  call void @llvm.lifetime.end.p0(i64 48, ptr %3) #27
  br label %13

13:                                               ; preds = %9
  %14 = load ptr, ptr %4, align 8
  %15 = load i32, ptr %5, align 4
  %16 = insertvalue { ptr, i32 } poison, ptr %14, 0
  %17 = insertvalue { ptr, i32 } %16, i32 %15, 1
  resume { ptr, i32 } %17
}

; Function Attrs: mustprogress ssp uwtable
define void @_ZNK6open3d4core7HashMap14CheckKeyLengthERKNS0_6TensorE(ptr noundef nonnull align 8 dereferenceable(152) %0, ptr noundef nonnull align 8 dereferenceable(160) %1) #1 align 2 {
  %3 = alloca ptr, align 8
  %4 = alloca ptr, align 8
  %5 = alloca i64, align 8
  store ptr %0, ptr %3, align 8, !tbaa !4
  store ptr %1, ptr %4, align 8, !tbaa !134
  call void @llvm.lifetime.start.p0(i64 8, ptr %5) #27
  %6 = load ptr, ptr %4, align 8, !tbaa !134
  %7 = call noundef i64 @_ZNK6open3d4core6Tensor9GetLengthEv(ptr noundef nonnull align 8 dereferenceable(160) %6)
  store i64 %7, ptr %5, align 8, !tbaa !11
  %8 = load i64, ptr %5, align 8, !tbaa !11
  %9 = icmp eq i64 %8, 0
  br i1 %9, label %10, label %11

10:                                               ; preds = %2
  call void @_ZN6open3d7utility6Logger9LogError_IJEEEvPKciS4_S4_DpOT_(ptr noundef @.str.1, i32 noundef 359, ptr noundef @__PRETTY_FUNCTION__._ZNK6open3d4core7HashMap14CheckKeyLengthERKNS0_6TensorE, ptr noundef @.str.58) #30
  unreachable

11:                                               ; preds = %2
  call void @llvm.lifetime.end.p0(i64 8, ptr %5) #27
  ret void
}

; Function Attrs: mustprogress ssp uwtable
define void @_ZN6open3d4core7HashMap5EraseERKNS0_6TensorERS2_(ptr noundef nonnull align 8 dereferenceable(152) %0, ptr noundef nonnull align 8 dereferenceable(160) %1, ptr noundef nonnull align 8 dereferenceable(160) %2) #1 align 2 {
  %4 = alloca ptr, align 8
  %5 = alloca ptr, align 8
  %6 = alloca ptr, align 8
  %7 = alloca i64, align 8
  store ptr %0, ptr %4, align 8, !tbaa !4
  store ptr %1, ptr %5, align 8, !tbaa !134
  store ptr %2, ptr %6, align 8, !tbaa !134
  %8 = load ptr, ptr %4, align 8
  %9 = load ptr, ptr %5, align 8, !tbaa !134
  call void @_ZNK6open3d4core7HashMap14CheckKeyLengthERKNS0_6TensorE(ptr noundef nonnull align 8 dereferenceable(152) %8, ptr noundef nonnull align 8 dereferenceable(160) %9)
  %10 = load ptr, ptr %5, align 8, !tbaa !134
  call void @_ZNK6open3d4core7HashMap21CheckKeyCompatibilityERKNS0_6TensorE(ptr noundef nonnull align 8 dereferenceable(152) %8, ptr noundef nonnull align 8 dereferenceable(160) %10)
  call void @llvm.lifetime.start.p0(i64 8, ptr %7) #27
  %11 = load ptr, ptr %5, align 8, !tbaa !134
  %12 = call noundef i64 @_ZNK6open3d4core6Tensor9GetLengthEv(ptr noundef nonnull align 8 dereferenceable(160) %11)
  store i64 %12, ptr %7, align 8, !tbaa !11
  %13 = load ptr, ptr %6, align 8, !tbaa !134
  %14 = load i64, ptr %7, align 8, !tbaa !11
  call void @_ZNK6open3d4core7HashMap18PrepareMasksOutputERNS0_6TensorEl(ptr noundef nonnull align 8 dereferenceable(152) %8, ptr noundef nonnull align 8 dereferenceable(160) %13, i64 noundef %14)
  %15 = getelementptr inbounds nuw %"class.open3d::core::HashMap", ptr %8, i32 0, i32 1
  %16 = call noundef ptr @_ZNKSt19__shared_ptr_accessIN6open3d4core17DeviceHashBackendELN9__gnu_cxx12_Lock_policyE2ELb0ELb0EEptEv(ptr noundef nonnull align 1 dereferenceable(1) %15) #27
  %17 = load ptr, ptr %5, align 8, !tbaa !134
  %18 = call noundef ptr @_ZNK6open3d4core6Tensor10GetDataPtrEv(ptr noundef nonnull align 8 dereferenceable(160) %17)
  %19 = load ptr, ptr %6, align 8, !tbaa !134
  %20 = call noundef ptr @_ZN6open3d4core6Tensor10GetDataPtrIbEEPT_v(ptr noundef nonnull align 8 dereferenceable(160) %19)
  %21 = load i64, ptr %7, align 8, !tbaa !11
  %22 = load ptr, ptr %16, align 8, !tbaa !9
  %23 = getelementptr inbounds ptr, ptr %22, i64 5
  %24 = load ptr, ptr %23, align 8
  call void %24(ptr noundef nonnull align 8 dereferenceable(72) %16, ptr noundef %18, ptr noundef %20, i64 noundef %21)
  call void @llvm.lifetime.end.p0(i64 8, ptr %7) #27
  ret void
}