; Function Attrs: mustprogress ssp uwtable
define void @_ZN6open3d4core7HashMap5EraseERKNS0_6TensorERS2_(ptr noundef nonnull align 8 dereferenceable(152) %0, ptr noundef nonnull align 8 dereferenceable(160) %1, ptr noundef nonnull align 8 dereferenceable(160) %2) local_unnamed_addr #2 align 2 personality ptr @__gxx_personality_v0 {
  %4 = alloca %"class.open3d::core::SizeVector", align 8
  %5 = alloca %"class.open3d::core::SizeVector", align 8
  call void @llvm.lifetime.start.p0(i64 48, ptr nonnull %5) #30
  %6 = getelementptr inbounds nuw i8, ptr %1, i64 8
  call void @_ZN6open3d4core10SizeVectorC1ERKS1_(ptr noundef nonnull align 8 dereferenceable(48) %5, ptr noundef nonnull align 8 dereferenceable(48) %6)
  %7 = invoke noundef i64 @_ZNK6open3d4core10SizeVector9GetLengthEv(ptr noundef nonnull align 8 dereferenceable(48) %5)
          to label %8 unwind label %13

8:                                                ; preds = %3
  %9 = load ptr, ptr %5, align 8, !tbaa !13
  %10 = getelementptr inbounds nuw i8, ptr %5, i64 16
  %11 = icmp eq ptr %9, %10
  br i1 %11, label %_ZNK6open3d4core6Tensor9GetLengthEv.exit.i, label %12

12:                                               ; preds = %8
  call void @free(ptr noundef %9) #30
  br label %_ZNK6open3d4core6Tensor9GetLengthEv.exit.i

13:                                               ; preds = %3
  %14 = landingpad { ptr, i32 }
          cleanup
  %15 = load ptr, ptr %5, align 8, !tbaa !13
  %16 = getelementptr inbounds nuw i8, ptr %5, i64 16
  %17 = icmp eq ptr %15, %16
  br i1 %17, label %_ZN6open3d4core11SmallVectorIlLj4EED2Ev.exit2.i.i, label %18

18:                                               ; preds = %13
  call void @free(ptr noundef %15) #30
  br label %_ZN6open3d4core11SmallVectorIlLj4EED2Ev.exit2.i.i

common.resume:                                    ; preds = %_ZN6open3d4core11SmallVectorIlLj4EED2Ev.exit2.i, %_ZN6open3d4core11SmallVectorIlLj4EED2Ev.exit2.i.i
  %common.resume.op = phi { ptr, i32 } [ %14, %_ZN6open3d4core11SmallVectorIlLj4EED2Ev.exit2.i.i ], [ %28, %_ZN6open3d4core11SmallVectorIlLj4EED2Ev.exit2.i ]
  resume { ptr, i32 } %common.resume.op

_ZN6open3d4core11SmallVectorIlLj4EED2Ev.exit2.i.i: ; preds = %18, %13
  call void @llvm.lifetime.end.p0(i64 48, ptr nonnull %5) #30
  br label %common.resume

_ZNK6open3d4core6Tensor9GetLengthEv.exit.i:       ; preds = %12, %8
  call void @llvm.lifetime.end.p0(i64 48, ptr nonnull %5) #30
  %19 = icmp eq i64 %7, 0
  br i1 %19, label %20, label %_ZNK6open3d4core7HashMap14CheckKeyLengthERKNS0_6TensorE.exit

20:                                               ; preds = %_ZNK6open3d4core6Tensor9GetLengthEv.exit.i
  call void @_ZN6open3d7utility6Logger9LogError_IJEEEvPKciS4_S4_DpOT_(ptr noundef nonnull @.str.1, i32 noundef 359, ptr noundef nonnull @__PRETTY_FUNCTION__._ZNK6open3d4core7HashMap14CheckKeyLengthERKNS0_6TensorE, ptr noundef nonnull @.str.58) #33
  unreachable

_ZNK6open3d4core7HashMap14CheckKeyLengthERKNS0_6TensorE.exit: ; preds = %_ZNK6open3d4core6Tensor9GetLengthEv.exit.i
  call void @_ZNK6open3d4core7HashMap21CheckKeyCompatibilityERKNS0_6TensorE(ptr noundef nonnull align 8 dereferenceable(152) %0, ptr noundef nonnull align 8 dereferenceable(160) %1)
  call void @llvm.lifetime.start.p0(i64 48, ptr nonnull %4) #30
  call void @_ZN6open3d4core10SizeVectorC1ERKS1_(ptr noundef nonnull align 8 dereferenceable(48) %4, ptr noundef nonnull align 8 dereferenceable(48) %6)
  %21 = invoke noundef i64 @_ZNK6open3d4core10SizeVector9GetLengthEv(ptr noundef nonnull align 8 dereferenceable(48) %4)
          to label %22 unwind label %27

22:                                               ; preds = %_ZNK6open3d4core7HashMap14CheckKeyLengthERKNS0_6TensorE.exit
  %23 = load ptr, ptr %4, align 8, !tbaa !13
  %24 = getelementptr inbounds nuw i8, ptr %4, i64 16
  %25 = icmp eq ptr %23, %24
  br i1 %25, label %_ZNK6open3d4core6Tensor9GetLengthEv.exit, label %26

26:                                               ; preds = %22
  call void @free(ptr noundef %23) #30
  br label %_ZNK6open3d4core6Tensor9GetLengthEv.exit

27:                                               ; preds = %_ZNK6open3d4core7HashMap14CheckKeyLengthERKNS0_6TensorE.exit
  %28 = landingpad { ptr, i32 }
          cleanup
  %29 = load ptr, ptr %4, align 8, !tbaa !13
  %30 = getelementptr inbounds nuw i8, ptr %4, i64 16
  %31 = icmp eq ptr %29, %30
  br i1 %31, label %_ZN6open3d4core11SmallVectorIlLj4EED2Ev.exit2.i, label %32

32:                                               ; preds = %27
  call void @free(ptr noundef %29) #30
  br label %_ZN6open3d4core11SmallVectorIlLj4EED2Ev.exit2.i

_ZN6open3d4core11SmallVectorIlLj4EED2Ev.exit2.i:  ; preds = %32, %27
  call void @llvm.lifetime.end.p0(i64 48, ptr nonnull %4) #30
  br label %common.resume

_ZNK6open3d4core6Tensor9GetLengthEv.exit:         ; preds = %22, %26
  call void @llvm.lifetime.end.p0(i64 48, ptr nonnull %4) #30
  call void @_ZNK6open3d4core7HashMap18PrepareMasksOutputERNS0_6TensorEl(ptr noundef nonnull align 8 dereferenceable(152) %0, ptr noundef nonnull align 8 dereferenceable(160) %2, i64 noundef %21)
  %33 = getelementptr inbounds nuw i8, ptr %0, i64 8
  %34 = load ptr, ptr %33, align 8, !tbaa !32
  %35 = getelementptr inbounds nuw i8, ptr %1, i64 104
  %36 = load ptr, ptr %35, align 8, !tbaa !53
  %37 = call noundef ptr @_ZNK6open3d4core6Tensor10GetDataPtrIbEEPKT_v(ptr noundef nonnull align 8 dereferenceable(160) %2)
  %38 = load ptr, ptr %34, align 8, !tbaa !4
  %39 = getelementptr inbounds nuw i8, ptr %38, i64 40
  %40 = load ptr, ptr %39, align 8
  call void %40(ptr noundef nonnull align 8 dereferenceable(72) %34, ptr noundef %36, ptr noundef %37, i64 noundef %21)
  ret void
}